target datalayout = "e-m:e-p270:32:32-p271:32:32-p272:64:64-i64:64-i128:128-f80:128-n8:16:32:64-S128"
target triple = "x86_64-pc-linux-gnu"

%struct.ggml_type_traits = type { ptr, i64, i64, i64, i8, ptr, ptr }
%struct.ggml_object = type { i64, i64, ptr, i32, [4 x i8] }
%struct.ggml_context = type { i64, ptr, i8, i8, i32, ptr, ptr }
%struct.ggml_tensor = type { i32, ptr, [4 x i64], [4 x i64], i32, [16 x i32], i32, [10 x ptr], ptr, i64, ptr, [64 x i8], ptr, [8 x i8] }

; Function Attrs: nounwind uwtable
define i64 @ggml_type_size(i32 noundef %0) #5 {
  %2 = alloca i32, align 4
  store i32 %0, ptr %2, align 4, !tbaa !8
  %3 = load i32, ptr %2, align 4, !tbaa !8
  %4 = zext i32 %3 to i64
  %5 = getelementptr inbounds nuw [39 x %struct.ggml_type_traits], ptr @type_traits, i64 0, i64 %4
  %6 = getelementptr inbounds nuw %struct.ggml_type_traits, ptr %5, i32 0, i32 3
  %7 = load i64, ptr %6, align 8, !tbaa !63
  ret i64 %7
}

; Function Attrs: nounwind uwtable
define i64 @ggml_blck_size(i32 noundef %0) #5 {
  %2 = alloca i32, align 4
  store i32 %0, ptr %2, align 4, !tbaa !8
  %3 = load i32, ptr %2, align 4, !tbaa !8
  %4 = zext i32 %3 to i64
  %5 = getelementptr inbounds nuw [39 x %struct.ggml_type_traits], ptr @type_traits, i64 0, i64 %4
  %6 = getelementptr inbounds nuw %struct.ggml_type_traits, ptr %5, i32 0, i32 1
  %7 = load i64, ptr %6, align 8, !tbaa !61
  ret i64 %7
}

; Function Attrs: nounwind uwtable
define ptr @ggml_get_next_tensor(ptr noundef %0, ptr noundef %1) #5 {
  %3 = alloca ptr, align 8
  %4 = alloca ptr, align 8
  %5 = alloca ptr, align 8
  %6 = alloca ptr, align 8
  %7 = alloca ptr, align 8
  %8 = alloca i32, align 4
  store ptr %0, ptr %4, align 8, !tbaa !48
  store ptr %1, ptr %5, align 8, !tbaa !54
  call void @llvm.lifetime.start.p0(i64 8, ptr %6) #14
  %9 = load ptr, ptr %5, align 8, !tbaa !54
  %10 = getelementptr inbounds i8, ptr %9, i64 -32
  store ptr %10, ptr %6, align 8, !tbaa !41
  %11 = load ptr, ptr %6, align 8, !tbaa !41
  %12 = getelementptr inbounds nuw %struct.ggml_object, ptr %11, i32 0, i32 2
  %13 = load ptr, ptr %12, align 8, !tbaa !47
  store ptr %13, ptr %6, align 8, !tbaa !41
  call void @llvm.lifetime.start.p0(i64 8, ptr %7) #14
  %14 = load ptr, ptr %4, align 8, !tbaa !48
  %15 = getelementptr inbounds nuw %struct.ggml_context, ptr %14, i32 0, i32 1
  %16 = load ptr, ptr %15, align 8, !tbaa !78
  store ptr %16, ptr %7, align 8, !tbaa !3
  br label %17

17:                                               ; preds = %31, %2
  %18 = load ptr, ptr %6, align 8, !tbaa !41
  %19 = icmp ne ptr %18, null
  br i1 %19, label %20, label %35

20:                                               ; preds = %17
  %21 = load ptr, ptr %6, align 8, !tbaa !41
  %22 = getelementptr inbounds nuw %struct.ggml_object, ptr %21, i32 0, i32 3
  %23 = load i32, ptr %22, align 8, !tbaa !43
  %24 = icmp eq i32 %23, 0
  br i1 %24, label %25, label %31

25:                                               ; preds = %20
  %26 = load ptr, ptr %7, align 8, !tbaa !3
  %27 = load ptr, ptr %6, align 8, !tbaa !41
  %28 = getelementptr inbounds nuw %struct.ggml_object, ptr %27, i32 0, i32 0
  %29 = load i64, ptr %28, align 8, !tbaa !45
  %30 = getelementptr inbounds nuw i8, ptr %26, i64 %29
  store ptr %30, ptr %3, align 8
  store i32 1, ptr %8, align 4
  br label %36

31:                                               ; preds = %20
  %32 = load ptr, ptr %6, align 8, !tbaa !41
  %33 = getelementptr inbounds nuw %struct.ggml_object, ptr %32, i32 0, i32 2
  %34 = load ptr, ptr %33, align 8, !tbaa !47
  store ptr %34, ptr %6, align 8, !tbaa !41
  br label %17, !llvm.loop !87

35:                                               ; preds = %17
  store ptr null, ptr %3, align 8
  store i32 1, ptr %8, align 4
  br label %36

36:                                               ; preds = %35, %25
  call void @llvm.lifetime.end.p0(i64 8, ptr %7) #14
  call void @llvm.lifetime.end.p0(i64 8, ptr %6) #14
  %37 = load ptr, ptr %3, align 8
  ret ptr %37
}

; Function Attrs: nounwind uwtable
define i64 @ggml_nbytes(ptr noundef %0) #5 {
  %2 = alloca ptr, align 8
  %3 = alloca i64, align 8
  %4 = alloca i64, align 8
  %5 = alloca i32, align 4
  %6 = alloca i32, align 4
  store ptr %0, ptr %2, align 8, !tbaa !54
  call void @llvm.lifetime.start.p0(i64 8, ptr %3) #14
  call void @llvm.lifetime.start.p0(i64 8, ptr %4) #14
  %7 = load ptr, ptr %2, align 8, !tbaa !54
  %8 = getelementptr inbounds nuw %struct.ggml_tensor, ptr %7, i32 0, i32 0
  %9 = load i32, ptr %8, align 8, !tbaa !56
  %10 = call i64 @ggml_blck_size(i32 noundef %9)
  store i64 %10, ptr %4, align 8, !tbaa !19
  %11 = load i64, ptr %4, align 8, !tbaa !19
  %12 = icmp eq i64 %11, 1
  br i1 %12, label %13, label %43

13:                                               ; preds = %1
  %14 = load ptr, ptr %2, align 8, !tbaa !54
  %15 = getelementptr inbounds nuw %struct.ggml_tensor, ptr %14, i32 0, i32 0
  %16 = load i32, ptr %15, align 8, !tbaa !56
  %17 = call i64 @ggml_type_size(i32 noundef %16)
  store i64 %17, ptr %3, align 8, !tbaa !19
  call void @llvm.lifetime.start.p0(i64 4, ptr %5) #14
  store i32 0, ptr %5, align 4, !tbaa !8
  br label %18

18:                                               ; preds = %39, %13
  %19 = load i32, ptr %5, align 4, !tbaa !8
  %20 = icmp slt i32 %19, 4
  br i1 %20, label %22, label %21

21:                                               ; preds = %18
  call void @llvm.lifetime.end.p0(i64 4, ptr %5) #14
  br label %42

22:                                               ; preds = %18
  %23 = load ptr, ptr %2, align 8, !tbaa !54
  %24 = getelementptr inbounds nuw %struct.ggml_tensor, ptr %23, i32 0, i32 2
  %25 = load i32, ptr %5, align 4, !tbaa !8
  %26 = sext i32 %25 to i64
  %27 = getelementptr inbounds [4 x i64], ptr %24, i64 0, i64 %26
  %28 = load i64, ptr %27, align 8, !tbaa !19
  %29 = sub nsw i64 %28, 1
  %30 = load ptr, ptr %2, align 8, !tbaa !54
  %31 = getelementptr inbounds nuw %struct.ggml_tensor, ptr %30, i32 0, i32 3
  %32 = load i32, ptr %5, align 4, !tbaa !8
  %33 = sext i32 %32 to i64
  %34 = getelementptr inbounds [4 x i64], ptr %31, i64 0, i64 %33
  %35 = load i64, ptr %34, align 8, !tbaa !19
  %36 = mul i64 %29, %35
  %37 = load i64, ptr %3, align 8, !tbaa !19
  %38 = add i64 %37, %36
  store i64 %38, ptr %3, align 8, !tbaa !19
  br label %39

39:                                               ; preds = %22
  %40 = load i32, ptr %5, align 4, !tbaa !8
  %41 = add nsw i32 %40, 1
  store i32 %41, ptr %5, align 4, !tbaa !8
  br label %18, !llvm.loop !59

42:                                               ; preds = %21
  br label %80

43:                                               ; preds = %1
  %44 = load ptr, ptr %2, align 8, !tbaa !54
  %45 = getelementptr inbounds nuw %struct.ggml_tensor, ptr %44, i32 0, i32 2
  %46 = getelementptr inbounds [4 x i64], ptr %45, i64 0, i64 0
  %47 = load i64, ptr %46, align 8, !tbaa !19
  %48 = load ptr, ptr %2, align 8, !tbaa !54
  %49 = getelementptr inbounds nuw %struct.ggml_tensor, ptr %48, i32 0, i32 3
  %50 = getelementptr inbounds [4 x i64], ptr %49, i64 0, i64 0
  %51 = load i64, ptr %50, align 8, !tbaa !19
  %52 = mul i64 %47, %51
  %53 = load i64, ptr %4, align 8, !tbaa !19
  %54 = udiv i64 %52, %53
  store i64 %54, ptr %3, align 8, !tbaa !19
  call void @llvm.lifetime.start.p0(i64 4, ptr %6) #14
  store i32 1, ptr %6, align 4, !tbaa !8
  br label %55

55:                                               ; preds = %76, %43
  %56 = load i32, ptr %6, align 4, !tbaa !8
  %57 = icmp slt i32 %56, 4
  br i1 %57, label %59, label %58

58:                                               ; preds = %55
  call void @llvm.lifetime.end.p0(i64 4, ptr %6) #14
  br label %79

59:                                               ; preds = %55
  %60 = load ptr, ptr %2, align 8, !tbaa !54
  %61 = getelementptr inbounds nuw %struct.ggml_tensor, ptr %60, i32 0, i32 2
  %62 = load i32, ptr %6, align 4, !tbaa !8
  %63 = sext i32 %62 to i64
  %64 = getelementptr inbounds [4 x i64], ptr %61, i64 0, i64 %63
  %65 = load i64, ptr %64, align 8, !tbaa !19
  %66 = sub nsw i64 %65, 1
  %67 = load ptr, ptr %2, align 8, !tbaa !54
  %68 = getelementptr inbounds nuw %struct.ggml_tensor, ptr %67, i32 0, i32 3
  %69 = load i32, ptr %6, align 4, !tbaa !8
  %70 = sext i32 %69 to i64
  %71 = getelementptr inbounds [4 x i64], ptr %68, i64 0, i64 %70
  %72 = load i64, ptr %71, align 8, !tbaa !19
  %73 = mul i64 %66, %72
  %74 = load i64, ptr %3, align 8, !tbaa !19
  %75 = add i64 %74, %73
  store i64 %75, ptr %3, align 8, !tbaa !19
  br label %76

76:                                               ; preds = %59
  %77 = load i32, ptr %6, align 4, !tbaa !8
  %78 = add nsw i32 %77, 1
  store i32 %78, ptr %6, align 4, !tbaa !8
  br label %55, !llvm.loop !60

79:                                               ; preds = %58
  br label %80

80:                                               ; preds = %79, %42
  %81 = load i64, ptr %3, align 8, !tbaa !19
  call void @llvm.lifetime.end.p0(i64 8, ptr %4) #14
  call void @llvm.lifetime.end.p0(i64 8, ptr %3) #14
  ret i64 %81
}

; Function Attrs: nounwind uwtable
define ptr @ggml_get_first_tensor(ptr noundef %0) #5 {
  %2 = alloca ptr, align 8
  %3 = alloca ptr, align 8
  %4 = alloca ptr, align 8
  %5 = alloca ptr, align 8
  %6 = alloca i32, align 4
  store ptr %0, ptr %3, align 8, !tbaa !48
  call void @llvm.lifetime.start.p0(i64 8, ptr %4) #14
  %7 = load ptr, ptr %3, align 8, !tbaa !48
  %8 = getelementptr inbounds nuw %struct.ggml_context, ptr %7, i32 0, i32 5
  %9 = load ptr, ptr %8, align 8, !tbaa !50
  store ptr %9, ptr %4, align 8, !tbaa !41
  call void @llvm.lifetime.start.p0(i64 8, ptr %5) #14
  %10 = load ptr, ptr %3, align 8, !tbaa !48
  %11 = getelementptr inbounds nuw %struct.ggml_context, ptr %10, i32 0, i32 1
  %12 = load ptr, ptr %11, align 8, !tbaa !78
  store ptr %12, ptr %5, align 8, !tbaa !3
  br label %13

13:                                               ; preds = %27, %1
  %14 = load ptr, ptr %4, align 8, !tbaa !41
  %15 = icmp ne ptr %14, null
  br i1 %15, label %16, label %31

16:                                               ; preds = %13
  %17 = load ptr, ptr %4, align 8, !tbaa !41
  %18 = getelementptr inbounds nuw %struct.ggml_object, ptr %17, i32 0, i32 3
  %19 = load i32, ptr %18, align 8, !tbaa !43
  %20 = icmp eq i32 %19, 0
  br i1 %20, label %21, label %27

21:                                               ; preds = %16
  %22 = load ptr, ptr %5, align 8, !tbaa !3
  %23 = load ptr, ptr %4, align 8, !tbaa !41
  %24 = getelementptr inbounds nuw %struct.ggml_object, ptr %23, i32 0, i32 0
  %25 = load i64, ptr %24, align 8, !tbaa !45
  %26 = getelementptr inbounds nuw i8, ptr %22, i64 %25
  store ptr %26, ptr %2, align 8
  store i32 1, ptr %6, align 4
  br label %32

27:                                               ; preds = %16
  %28 = load ptr, ptr %4, align 8, !tbaa !41
  %29 = getelementptr inbounds nuw %struct.ggml_object, ptr %28, i32 0, i32 2
  %30 = load ptr, ptr %29, align 8, !tbaa !47
  store ptr %30, ptr %4, align 8, !tbaa !41
  br label %13, !llvm.loop !86

31:                                               ; preds = %13
  store ptr null, ptr %2, align 8
  store i32 1, ptr %6, align 4
  br label %32

32:                                               ; preds = %31, %21
  call void @llvm.lifetime.end.p0(i64 8, ptr %5) #14
  call void @llvm.lifetime.end.p0(i64 8, ptr %4) #14
  %33 = load ptr, ptr %2, align 8
  ret ptr %33
}

; Function Attrs: nounwind uwtable
define i64 @ggml_get_max_tensor_size(ptr noundef %0) #5 {
  %2 = alloca ptr, align 8
  %3 = alloca i64, align 8
  %4 = alloca ptr, align 8
  %5 = alloca i64, align 8
  store ptr %0, ptr %2, align 8, !tbaa !48
  call void @llvm.lifetime.start.p0(i64 8, ptr %3) #14
  store i64 0, ptr %3, align 8, !tbaa !19
  call void @llvm.lifetime.start.p0(i64 8, ptr %4) #14
  %6 = load ptr, ptr %2, align 8, !tbaa !48
  %7 = call ptr @ggml_get_first_tensor(ptr noundef %6)
  store ptr %7, ptr %4, align 8, !tbaa !54
  br label %8

8:                                                ; preds = %24, %1
  %9 = load ptr, ptr %4, align 8, !tbaa !54
  %10 = icmp ne ptr %9, null
  br i1 %10, label %12, label %11

11:                                               ; preds = %8
  call void @llvm.lifetime.end.p0(i64 8, ptr %4) #14
  br label %28

12:                                               ; preds = %8
  call void @llvm.lifetime.start.p0(i64 8, ptr %5) #14
  %13 = load ptr, ptr %4, align 8, !tbaa !54
  %14 = call i64 @ggml_nbytes(ptr noundef %13)
  store i64 %14, ptr %5, align 8, !tbaa !19
  %15 = load i64, ptr %3, align 8, !tbaa !19
  %16 = load i64, ptr %5, align 8, !tbaa !19
  %17 = icmp ugt i64 %15, %16
  br i1 %17, label %18, label %20

18:                                               ; preds = %12
  %19 = load i64, ptr %3, align 8, !tbaa !19
  br label %22

20:                                               ; preds = %12
  %21 = load i64, ptr %5, align 8, !tbaa !19
  br label %22

22:                                               ; preds = %20, %18
  %23 = phi i64 [ %19, %18 ], [ %21, %20 ]
  store i64 %23, ptr %3, align 8, !tbaa !19
  call void @llvm.lifetime.end.p0(i64 8, ptr %5) #14
  br label %24

24:                                               ; preds = %22
  %25 = load ptr, ptr %2, align 8, !tbaa !48
  %26 = load ptr, ptr %4, align 8, !tbaa !54
  %27 = call ptr @ggml_get_next_tensor(ptr noundef %25, ptr noundef %26)
  store ptr %27, ptr %4, align 8, !tbaa !54
  br label %8, !llvm.loop !85

28:                                               ; preds = %11
  %29 = load i64, ptr %3, align 8, !tbaa !19
  call void @llvm.lifetime.end.p0(i64 8, ptr %3) #14
  ret i64 %29
}