; Function Attrs: nofree norecurse nosync nounwind memory(read, inaccessiblemem: none) uwtable
define i64 @ggml_get_max_tensor_size(ptr noundef readonly captures(none) %0) local_unnamed_addr #24 {
  %2 = getelementptr inbounds nuw i8, ptr %0, i64 24
  %3 = getelementptr inbounds nuw i8, ptr %0, i64 8
  %4 = load ptr, ptr %3, align 8, !tbaa !66
  %.0810.i = load ptr, ptr %2, align 8, !tbaa !70
  %.not11.i = icmp eq ptr %.0810.i, null
  br i1 %.not11.i, label %._crit_edge, label %.lr.ph.i

.lr.ph.i:                                         ; preds = %1, %8
  %.0812.i = phi ptr [ %.08.i, %8 ], [ %.0810.i, %1 ]
  %5 = getelementptr inbounds nuw i8, ptr %.0812.i, i64 24
  %6 = load i32, ptr %5, align 8, !tbaa !29
  %7 = icmp eq i32 %6, 0
  br i1 %7, label %ggml_get_first_tensor.exit, label %8

8:                                                ; preds = %.lr.ph.i
  %9 = getelementptr inbounds nuw i8, ptr %.0812.i, i64 16
  %.08.i = load ptr, ptr %9, align 8, !tbaa !70
  %.not.i = icmp eq ptr %.08.i, null
  br i1 %.not.i, label %._crit_edge, label %.lr.ph.i, !llvm.loop !71

ggml_get_first_tensor.exit:                       ; preds = %.lr.ph.i
  %.not17 = icmp eq ptr %4, null
  br i1 %.not17, label %._crit_edge, label %.lr.ph

._crit_edge:                                      ; preds = %8, %ggml_nbytes.exit, %48, %1, %ggml_get_first_tensor.exit
  %.0.lcssa = phi i64 [ 0, %ggml_get_first_tensor.exit ], [ 0, %1 ], [ %43, %48 ], [ %43, %ggml_nbytes.exit ], [ 0, %8 ]
  ret i64 %.0.lcssa

.lr.ph:                                           ; preds = %.lr.ph.i10, %ggml_get_first_tensor.exit
  %.019 = phi i64 [ 0, %ggml_get_first_tensor.exit ], [ %43, %.lr.ph.i10 ]
  %.pn.in = phi ptr [ %.0812.i, %ggml_get_first_tensor.exit ], [ %.0913.i, %.lr.ph.i10 ]
  %.pn = load i64, ptr %.pn.in, align 8, !tbaa !32
  %.0918 = getelementptr inbounds nuw i8, ptr %4, i64 %.pn
  %10 = load i32, ptr %.0918, align 8, !tbaa !40
  %11 = zext i32 %10 to i64
  %12 = getelementptr inbounds nuw [39 x %struct.ggml_type_traits], ptr @type_traits, i64 0, i64 %11, i32 1
  %13 = load i64, ptr %12, align 8, !tbaa !44
  %14 = icmp eq i64 %13, 1
  br i1 %14, label %15, label %28

15:                                               ; preds = %.lr.ph
  %16 = getelementptr inbounds nuw [39 x %struct.ggml_type_traits], ptr @type_traits, i64 0, i64 %11, i32 3
  %17 = load i64, ptr %16, align 8, !tbaa !47
  %18 = getelementptr inbounds nuw i8, ptr %.0918, i64 16
  %19 = getelementptr inbounds nuw i8, ptr %.0918, i64 48
  br label %20

20:                                               ; preds = %20, %15
  %indvars.iv31.i = phi i64 [ 0, %15 ], [ %indvars.iv.next32.i, %20 ]
  %.02126.i = phi i64 [ %17, %15 ], [ %27, %20 ]
  %21 = getelementptr inbounds nuw [4 x i64], ptr %18, i64 0, i64 %indvars.iv31.i
  %22 = load i64, ptr %21, align 8, !tbaa !39
  %23 = add nsw i64 %22, -1
  %24 = getelementptr inbounds nuw [4 x i64], ptr %19, i64 0, i64 %indvars.iv31.i
  %25 = load i64, ptr %24, align 8, !tbaa !39
  %26 = mul i64 %23, %25
  %27 = add i64 %26, %.02126.i
  %indvars.iv.next32.i = add nuw nsw i64 %indvars.iv31.i, 1
  %exitcond34.not.i = icmp eq i64 %indvars.iv.next32.i, 4
  br i1 %exitcond34.not.i, label %ggml_nbytes.exit, label %20, !llvm.loop !48

28:                                               ; preds = %.lr.ph
  %29 = getelementptr inbounds nuw i8, ptr %.0918, i64 16
  %30 = load i64, ptr %29, align 8, !tbaa !39
  %31 = getelementptr inbounds nuw i8, ptr %.0918, i64 48
  %32 = load i64, ptr %31, align 8, !tbaa !39
  %33 = mul i64 %32, %30
  %34 = udiv i64 %33, %13
  br label %35

35:                                               ; preds = %35, %28
  %indvars.iv.i = phi i64 [ 1, %28 ], [ %indvars.iv.next.i, %35 ]
  %.224.i = phi i64 [ %34, %28 ], [ %42, %35 ]
  %36 = getelementptr inbounds nuw [4 x i64], ptr %29, i64 0, i64 %indvars.iv.i
  %37 = load i64, ptr %36, align 8, !tbaa !39
  %38 = add nsw i64 %37, -1
  %39 = getelementptr inbounds nuw [4 x i64], ptr %31, i64 0, i64 %indvars.iv.i
  %40 = load i64, ptr %39, align 8, !tbaa !39
  %41 = mul i64 %38, %40
  %42 = add i64 %41, %.224.i
  %indvars.iv.next.i = add nuw nsw i64 %indvars.iv.i, 1
  %exitcond.not.i = icmp eq i64 %indvars.iv.next.i, 4
  br i1 %exitcond.not.i, label %ggml_nbytes.exit, label %35, !llvm.loop !49

ggml_nbytes.exit:                                 ; preds = %35, %20
  %.1.i = phi i64 [ %27, %20 ], [ %42, %35 ]
  %43 = tail call i64 @llvm.umax.i64(i64 %.019, i64 %.1.i)
  %44 = getelementptr inbounds i8, ptr %.0918, i64 -16
  %.0911.i = load ptr, ptr %44, align 8, !tbaa !34
  %.not12.i = icmp eq ptr %.0911.i, null
  br i1 %.not12.i, label %._crit_edge, label %.lr.ph.i10

.lr.ph.i10:                                       ; preds = %ggml_nbytes.exit, %48
  %.0913.i = phi ptr [ %.09.i, %48 ], [ %.0911.i, %ggml_nbytes.exit ]
  %45 = getelementptr inbounds nuw i8, ptr %.0913.i, i64 24
  %46 = load i32, ptr %45, align 8, !tbaa !29
  %47 = icmp eq i32 %46, 0
  br i1 %47, label %.lr.ph, label %48, !llvm.loop !72

48:                                               ; preds = %.lr.ph.i10
  %49 = getelementptr inbounds nuw i8, ptr %.0913.i, i64 16
  %.09.i = load ptr, ptr %49, align 8, !tbaa !34
  %.not.i11 = icmp eq ptr %.09.i, null
  br i1 %.not.i11, label %._crit_edge, label %.lr.ph.i10, !llvm.loop !73
}